target datalayout = "e-m:e-p270:32:32-p271:32:32-p272:64:64-i64:64-i128:128-f80:128-n8:16:32:64-S128"
target triple = "x86_64-pc-linux-gnu"

%struct.node_set = type { i16, ptr, ptr, i32, ptr, i32, i32, i64, i64 }
%struct.config_record_t = type { i16, i16, i16, i32, ptr, i16, ptr, ptr, i32, i64, ptr, ptr, i64, i16, i16, i32, i16, ptr, ptr, i32 }

; Function Attrs: nounwind uwtable
define internal void @_split_node_set(ptr noundef %0, ptr noundef %1, i32 noundef %2, i32 noundef %3, ptr noundef %4, ptr noundef %5, i32 noundef %6) #0 {
  %8 = alloca ptr, align 8
  %9 = alloca ptr, align 8
  %10 = alloca i32, align 4
  %11 = alloca i32, align 4
  %12 = alloca ptr, align 8
  %13 = alloca ptr, align 8
  %14 = alloca i32, align 4
  store ptr %0, ptr %8, align 8
  store ptr %1, ptr %9, align 8
  store i32 %2, ptr %10, align 4
  store i32 %3, ptr %11, align 4
  store ptr %4, ptr %12, align 8
  store ptr %5, ptr %13, align 8
  store i32 %6, ptr %14, align 4
  %15 = load ptr, ptr %9, align 8
  %16 = getelementptr inbounds nuw %struct.config_record_t, ptr %15, i32 0, i32 5
  %17 = load i16, ptr %16, align 8
  %18 = load ptr, ptr %8, align 8
  %19 = load i32, ptr %11, align 4
  %20 = sext i32 %19 to i64
  %21 = getelementptr inbounds %struct.node_set, ptr %18, i64 %20
  %22 = getelementptr inbounds nuw %struct.node_set, ptr %21, i32 0, i32 0
  store i16 %17, ptr %22, align 8
  %23 = load ptr, ptr %9, align 8
  %24 = getelementptr inbounds nuw %struct.config_record_t, ptr %23, i32 0, i32 6
  %25 = load ptr, ptr %24, align 8
  %26 = call ptr @xstrdup(ptr noundef %25)
  %27 = load ptr, ptr %8, align 8
  %28 = load i32, ptr %11, align 4
  %29 = sext i32 %28 to i64
  %30 = getelementptr inbounds %struct.node_set, ptr %27, i64 %29
  %31 = getelementptr inbounds nuw %struct.node_set, ptr %30, i32 0, i32 1
  store ptr %26, ptr %31, align 8
  %32 = load ptr, ptr %12, align 8
  %33 = call ptr @bit_copy(ptr noundef %32)
  %34 = load ptr, ptr %8, align 8
  %35 = load i32, ptr %11, align 4
  %36 = sext i32 %35 to i64
  %37 = getelementptr inbounds %struct.node_set, ptr %34, i64 %36
  %38 = getelementptr inbounds nuw %struct.node_set, ptr %37, i32 0, i32 2
  store ptr %33, ptr %38, align 8
  %39 = load i32, ptr %14, align 4
  %40 = load ptr, ptr %8, align 8
  %41 = load i32, ptr %11, align 4
  %42 = sext i32 %41 to i64
  %43 = getelementptr inbounds %struct.node_set, ptr %40, i64 %42
  %44 = getelementptr inbounds nuw %struct.node_set, ptr %43, i32 0, i32 3
  store i32 %39, ptr %44, align 8
  %45 = load ptr, ptr %9, align 8
  %46 = getelementptr inbounds nuw %struct.config_record_t, ptr %45, i32 0, i32 12
  %47 = load i64, ptr %46, align 8
  %48 = load ptr, ptr %8, align 8
  %49 = load i32, ptr %11, align 4
  %50 = sext i32 %49 to i64
  %51 = getelementptr inbounds %struct.node_set, ptr %48, i64 %50
  %52 = getelementptr inbounds nuw %struct.node_set, ptr %51, i32 0, i32 7
  store i64 %47, ptr %52, align 8
  %53 = load ptr, ptr %8, align 8
  %54 = load i32, ptr %10, align 4
  %55 = sext i32 %54 to i64
  %56 = getelementptr inbounds %struct.node_set, ptr %53, i64 %55
  %57 = getelementptr inbounds nuw %struct.node_set, ptr %56, i32 0, i32 6
  %58 = load i32, ptr %57, align 4
  %59 = load ptr, ptr %8, align 8
  %60 = load i32, ptr %11, align 4
  %61 = sext i32 %60 to i64
  %62 = getelementptr inbounds %struct.node_set, ptr %59, i64 %61
  %63 = getelementptr inbounds nuw %struct.node_set, ptr %62, i32 0, i32 6
  store i32 %58, ptr %63, align 4
  %64 = load ptr, ptr %8, align 8
  %65 = load i32, ptr %10, align 4
  %66 = sext i32 %65 to i64
  %67 = getelementptr inbounds %struct.node_set, ptr %64, i64 %66
  %68 = getelementptr inbounds nuw %struct.node_set, ptr %67, i32 0, i32 4
  %69 = load ptr, ptr %68, align 8
  %70 = call ptr @bit_copy(ptr noundef %69)
  %71 = load ptr, ptr %8, align 8
  %72 = load i32, ptr %11, align 4
  %73 = sext i32 %72 to i64
  %74 = getelementptr inbounds %struct.node_set, ptr %71, i64 %73
  %75 = getelementptr inbounds nuw %struct.node_set, ptr %74, i32 0, i32 4
  store ptr %70, ptr %75, align 8
  %76 = load ptr, ptr %8, align 8
  %77 = load i32, ptr %11, align 4
  %78 = sext i32 %77 to i64
  %79 = getelementptr inbounds %struct.node_set, ptr %76, i64 %78
  %80 = getelementptr inbounds nuw %struct.node_set, ptr %79, i32 0, i32 4
  %81 = load ptr, ptr %80, align 8
  %82 = load ptr, ptr %13, align 8
  call void @bit_and(ptr noundef %81, ptr noundef %82)
  %83 = load ptr, ptr %8, align 8
  %84 = load i32, ptr %11, align 4
  %85 = sext i32 %84 to i64
  %86 = getelementptr inbounds %struct.node_set, ptr %83, i64 %85
  %87 = getelementptr inbounds nuw %struct.node_set, ptr %86, i32 0, i32 4
  %88 = load ptr, ptr %87, align 8
  %89 = call i32 @bit_set_count(ptr noundef %88)
  %90 = load ptr, ptr %8, align 8
  %91 = load i32, ptr %11, align 4
  %92 = sext i32 %91 to i64
  %93 = getelementptr inbounds %struct.node_set, ptr %90, i64 %92
  %94 = getelementptr inbounds nuw %struct.node_set, ptr %93, i32 0, i32 5
  store i32 %89, ptr %94, align 8
  %95 = load ptr, ptr %8, align 8
  %96 = load i32, ptr %10, align 4
  %97 = sext i32 %96 to i64
  %98 = getelementptr inbounds %struct.node_set, ptr %95, i64 %97
  %99 = getelementptr inbounds nuw %struct.node_set, ptr %98, i32 0, i32 4
  %100 = load ptr, ptr %99, align 8
  %101 = load ptr, ptr %13, align 8
  call void @bit_and_not(ptr noundef %100, ptr noundef %101)
  %102 = load ptr, ptr %8, align 8
  %103 = load i32, ptr %11, align 4
  %104 = sext i32 %103 to i64
  %105 = getelementptr inbounds %struct.node_set, ptr %102, i64 %104
  %106 = getelementptr inbounds nuw %struct.node_set, ptr %105, i32 0, i32 5
  %107 = load i32, ptr %106, align 8
  %108 = load ptr, ptr %8, align 8
  %109 = load i32, ptr %10, align 4
  %110 = sext i32 %109 to i64
  %111 = getelementptr inbounds %struct.node_set, ptr %108, i64 %110
  %112 = getelementptr inbounds nuw %struct.node_set, ptr %111, i32 0, i32 5
  %113 = load i32, ptr %112, align 8
  %114 = sub i32 %113, %107
  store i32 %114, ptr %112, align 8
  ret void
}