; Function Attrs: nounwind uwtable
define internal fastcc void @_split_node_set(ptr noundef captures(none) %0, ptr noundef nonnull readonly captures(none) %1, i32 noundef %2, i32 noundef %3, ptr noundef %4, ptr noundef %5, i32 noundef range(i32 1, 4) %6) unnamed_addr #0 {
  %8 = getelementptr inbounds nuw i8, ptr %1, i64 24
  %9 = load i16, ptr %8, align 8
  %10 = sext i32 %3 to i64
  %11 = getelementptr inbounds %struct.node_set, ptr %0, i64 %10
  store i16 %9, ptr %11, align 8
  %12 = getelementptr inbounds nuw i8, ptr %1, i64 32
  %13 = load ptr, ptr %12, align 8
  %14 = tail call ptr @xstrdup(ptr noundef %13) #14
  %15 = getelementptr inbounds nuw i8, ptr %11, i64 8
  store ptr %14, ptr %15, align 8
  %16 = tail call ptr @bit_copy(ptr noundef %4) #14
  %17 = getelementptr inbounds nuw i8, ptr %11, i64 16
  store ptr %16, ptr %17, align 8
  %18 = getelementptr inbounds nuw i8, ptr %11, i64 24
  store i32 %6, ptr %18, align 8
  %19 = getelementptr inbounds nuw i8, ptr %1, i64 80
  %20 = load i64, ptr %19, align 8
  %21 = getelementptr inbounds nuw i8, ptr %11, i64 48
  store i64 %20, ptr %21, align 8
  %22 = sext i32 %2 to i64
  %23 = getelementptr inbounds %struct.node_set, ptr %0, i64 %22
  %24 = getelementptr inbounds nuw i8, ptr %23, i64 44
  %25 = load i32, ptr %24, align 4
  %26 = getelementptr inbounds nuw i8, ptr %11, i64 44
  store i32 %25, ptr %26, align 4
  %27 = getelementptr inbounds nuw i8, ptr %23, i64 32
  %28 = load ptr, ptr %27, align 8
  %29 = tail call ptr @bit_copy(ptr noundef %28) #14
  %30 = getelementptr inbounds nuw i8, ptr %11, i64 32
  store ptr %29, ptr %30, align 8
  tail call void @bit_and(ptr noundef %29, ptr noundef %5) #14
  %31 = load ptr, ptr %30, align 8
  %32 = tail call i32 @bit_set_count(ptr noundef %31) #14
  %33 = getelementptr inbounds nuw i8, ptr %11, i64 40
  store i32 %32, ptr %33, align 8
  %34 = load ptr, ptr %27, align 8
  tail call void @bit_and_not(ptr noundef %34, ptr noundef %5) #14
  %35 = load i32, ptr %33, align 8
  %36 = getelementptr inbounds nuw i8, ptr %23, i64 40
  %37 = load i32, ptr %36, align 8
  %38 = sub i32 %37, %35
  store i32 %38, ptr %36, align 8
  ret void
}